; Function Attrs: mustprogress nofree norecurse nosync nounwind willreturn memory(readwrite, inaccessiblemem: none) uwtable
define internal noundef i32 @f1(double %0, ptr noundef readonly captures(none) %1, ptr noundef readonly captures(none) %2, ptr readnone captures(none) %3) #3 {
  %5 = load ptr, ptr %1, align 8, !tbaa !18
  %6 = getelementptr inbounds nuw i8, ptr %5, i64 16
  %7 = load ptr, ptr %6, align 8, !tbaa !21
  %8 = load double, ptr %7, align 8, !tbaa !26
  %9 = getelementptr inbounds nuw i8, ptr %7, i64 8
  %10 = load double, ptr %9, align 8, !tbaa !26
  %11 = load ptr, ptr %2, align 8, !tbaa !18
  %12 = getelementptr inbounds nuw i8, ptr %11, i64 16
  %13 = load ptr, ptr %12, align 8, !tbaa !21
  store double %10, ptr %13, align 8, !tbaa !26
  %14 = fneg double %8
  %15 = tail call double @llvm.fmuladd.f64(double %14, double %8, double 1.000000e+00)
  %16 = fmul double %15, 3.000000e+00
  %17 = tail call double @llvm.fmuladd.f64(double %16, double %10, double %14)
  %18 = getelementptr inbounds nuw i8, ptr %13, i64 8
  store double %17, ptr %18, align 8, !tbaa !26
  ret i32 0
}